(dp1
S'files'
p2
(dp3
S'janitoo_runner'
p4
(dp5
S'index'
p6
(dp7
S'html_filename'
p8
S'janitoo_runner.html'
p9
sS'name'
p10
S'janitoo.runner'
p11
sS'nums'
p12
ccopy_reg
_reconstructor
p13
(ccoverage.results
Numbers
p14
c__builtin__
object
p15
NtRp16
(dp17
S'n_files'
p18
I1
sS'n_branches'
p19
I0
sS'n_statements'
p20
I221
sS'n_excluded'
p21
I0
sS'n_partial_branches'
p22
I0
sS'n_missing'
p23
I172
sS'n_missing_branches'
p24
I0
sbssS'hash'
p25
S'i\x14\x9a1)\xd3\xbe\x82\xa5\x83\xe1\xb1z\xda>^'
p26
ssS'janitoo_db'
p27
(dp28
g6
(dp29
g8
S'janitoo_db.html'
p30
sg10
g27
sg12
g13
(g14
g15
NtRp31
(dp32
g18
I1
sg19
I0
sg20
I4
sg21
I5
sg22
I0
sg23
I0
sg24
I0
sbssg25
S'\x15\x85\x86\xf0\x7f\x99\x10\x01\xe39\xa6\xa5c\xd5\xf9\xfd'
p33
ssS'janitoo_server'
p34
(dp35
g6
(dp36
g8
S'janitoo_server.html'
p37
sg10
S'janitoo.server'
p38
sg12
g13
(g14
g15
NtRp39
(dp40
g18
I1
sg19
I0
sg20
I314
sg21
I0
sg22
I0
sg23
I231
sg24
I0
sbssg25
S'\xff\xb5\xcfz\x1e\xd3\xae\xa7T@9\x8b\xae\x08\x1f\xd6'
p41
ssS'janitoo_flask_controller'
p42
(dp43
g6
(dp44
g8
S'janitoo_flask_controller.html'
p45
sg10
S'janitoo_flask.controller'
p46
sg12
g13
(g14
g15
NtRp47
(dp48
g18
I1
sg19
I0
sg20
I49
sg21
I0
sg22
I0
sg23
I24
sg24
I0
sbssg25
S'\xb1\x9e\x87i\x07\x04\xfe\x07\xdc\x13P|\xd8\x94\x88H'
p49
ssS'janitoo_db_migrate'
p50
(dp51
g6
(dp52
g8
S'janitoo_db_migrate.html'
p53
sg10
S'janitoo_db.migrate'
p54
sg12
g13
(g14
g15
NtRp55
(dp56
g18
I1
sg19
I0
sg20
I86
sg21
I0
sg22
I0
sg23
I53
sg24
I0
sbssg25
S'\x0fx\xa5\x90\xd2kT\xf3\xc4\\\xb6\xb8\xdb\x8aC\xc9'
p57
ssS'janitoo_dhcp'
p58
(dp59
g6
(dp60
g8
S'janitoo_dhcp.html'
p61
sg10
S'janitoo.dhcp'
p62
sg12
g13
(g14
g15
NtRp63
(dp64
g18
I1
sg19
I0
sg20
I1361
sg21
I0
sg22
I0
sg23
I1130
sg24
I0
sbssg25
S'\xe0\xa3\x12HlA\xcf\xfd#O^\xb6\\\x8c\x83\x97'
p65
ssS'janitoo_db_security'
p66
(dp67
g6
(dp68
g8
S'janitoo_db_security.html'
p69
sg10
S'janitoo_db.security'
p70
sg12
g13
(g14
g15
NtRp71
(dp72
g18
I1
sg19
I0
sg20
I133
sg21
I0
sg22
I0
sg23
I89
sg24
I0
sbssg25
S"\x19\xdc'\xf9?\x02\x7f\xf5+^\x87\xb8[\xc1D="
p73
ssS'janitoo_flask'
p74
(dp75
g6
(dp76
g8
S'janitoo_flask.html'
p77
sg10
g74
sg12
g13
(g14
g15
NtRp78
(dp79
g18
I1
sg19
I0
sg20
I176
sg21
I0
sg22
I0
sg23
I69
sg24
I0
sbssg25
S'P=\xc5i\xbe"\xc9\x9bn\x1aK\xbc)\xd5\xefg'
p80
ssS'janitoo_db_models'
p81
(dp82
g6
(dp83
g8
S'janitoo_db_models.html'
p84
sg10
S'janitoo_db.models'
p85
sg12
g13
(g14
g15
NtRp86
(dp87
g18
I1
sg19
I0
sg20
I18
sg21
I2
sg22
I0
sg23
I0
sg24
I0
sbssg25
S'e\x03\xdc\x0b\x90\xa6\x8e9\xbf\xc3\x8e\xff\xbe\x1f\\\x0f'
p88
ssS'janitoo__compat'
p89
(dp90
g6
(dp91
g8
S'janitoo__compat.html'
p92
sg10
S'janitoo._compat'
p93
sg12
g13
(g14
g15
NtRp94
(dp95
g18
I1
sg19
I0
sg20
I46
sg21
I0
sg22
I0
sg23
I29
sg24
I0
sbssg25
S'BXZ\x87\xbd\xe5M\x98\x94\xfb\x07\xc0\xcb\xc6\xed!'
p96
ssS'janitoo_mqtt'
p97
(dp98
g6
(dp99
g8
S'janitoo_mqtt.html'
p100
sg10
S'janitoo.mqtt'
p101
sg12
g13
(g14
g15
NtRp102
(dp103
g18
I1
sg19
I0
sg20
I134
sg21
I0
sg22
I0
sg23
I90
sg24
I0
sbssg25
S'9\xa3\xc4\x1a\xef\x00\x0eD&0\x8fW\x0e&\x10\xb6'
p104
ssS'janitoo_flask_network'
p105
(dp106
g6
(dp107
g8
S'janitoo_flask_network.html'
p108
sg10
S'janitoo_flask.network'
p109
sg12
g13
(g14
g15
NtRp110
(dp111
g18
I1
sg19
I0
sg20
I27
sg21
I0
sg22
I0
sg23
I3
sg24
I0
sbssg25
S'l\x1a-\x9ff[\x80\x1c\xceA\xcf\xa3\x87\x14Y$'
p112
ssS'janitoo_value'
p113
(dp114
g6
(dp115
g8
S'janitoo_value.html'
p116
sg10
S'janitoo.value'
p117
sg12
g13
(g14
g15
NtRp118
(dp119
g18
I1
sg19
I0
sg20
I82
sg21
I7
sg22
I0
sg23
I53
sg24
I0
sbssg25
S'\xef4\x9c{\xc3\xd7\xdc\xc3\xc2\x0f\x8f\xb7F\x97\x85\x8a'
p120
ssS'janitoo_utils'
p121
(dp122
g6
(dp123
g8
S'janitoo_utils.html'
p124
sg10
S'janitoo.utils'
p125
sg12
g13
(g14
g15
NtRp126
(dp127
g18
I1
sg19
I0
sg20
I70
sg21
I0
sg22
I0
sg23
I28
sg24
I0
sbssg25
S'\xb5\xf0\xf2eG\x968\xd8\xb8\xfc\xdeE>Xd\xf5'
p128
ssS'janitoo_node'
p129
(dp130
g6
(dp131
g8
S'janitoo_node.html'
p132
sg10
S'janitoo.node'
p133
sg12
g13
(g14
g15
NtRp134
(dp135
g18
I1
sg19
I0
sg20
I1083
sg21
I0
sg22
I0
sg23
I940
sg24
I0
sbssg25
S"\xc7\xb8\x1cw\x00\xe2P\x18\x13'1O\\\xd0`D"
p136
ssS'janitoo_value_factory'
p137
(dp138
g6
(dp139
g8
S'janitoo_value_factory.html'
p140
sg10
S'janitoo.value_factory'
p141
sg12
g13
(g14
g15
NtRp142
(dp143
g18
I1
sg19
I0
sg20
I240
sg21
I0
sg22
I0
sg23
I203
sg24
I0
sbssg25
S'e\x1d\xfd\x0e\xcct\xff\x18C\xdf\xb7d.lW\xc0'
p144
ssS'janitoo_db_models_utils'
p145
(dp146
g6
(dp147
g8
S'janitoo_db_models_utils.html'
p148
sg10
S'janitoo_db.models.utils'
p149
sg12
g13
(g14
g15
NtRp150
(dp151
g18
I1
sg19
I0
sg20
I60
sg21
I0
sg22
I0
sg23
I23
sg24
I0
sbssg25
S'\xd3$5\x84\xe5\xc3/\x10yx\x1e\x01\x8e\x17\xbev'
p152
ssS'janitoo_db_helpers'
p153
(dp154
g6
(dp155
g8
S'janitoo_db_helpers.html'
p156
sg10
S'janitoo_db.helpers'
p157
sg12
g13
(g14
g15
NtRp158
(dp159
g18
I1
sg19
I0
sg20
I36
sg21
I0
sg22
I0
sg23
I22
sg24
I0
sbssg25
S'\xb7\x03\xc6R\xc0y\x01\x87o\x96\x17\x0c4\x1fzj'
p160
ssS'janitoo'
p161
(dp162
g6
(dp163
g8
S'janitoo.html'
p164
sg10
g161
sg12
g13
(g14
g15
NtRp165
(dp166
g18
I1
sg19
I0
sg20
I4
sg21
I5
sg22
I0
sg23
I0
sg24
I0
sbssg25
S'\x15\x85\x86\xf0\x7f\x99\x10\x01\xe39\xa6\xa5c\xd5\xf9\xfd'
p167
ssS'janitoo_flask_listener'
p168
(dp169
g6
(dp170
g8
S'janitoo_flask_listener.html'
p171
sg10
S'janitoo_flask.listener'
p172
sg12
g13
(g14
g15
NtRp173
(dp174
g18
I1
sg19
I0
sg20
I90
sg21
I0
sg22
I0
sg23
I25
sg24
I0
sbssg25
S'\xc4\xbf\xecB\x85\xa0\xec}:\xb0\x8d)\xd0\x19\xfc\x14'
p175
ssS'janitoo_db_base'
p176
(dp177
g6
(dp178
g8
S'janitoo_db_base.html'
p179
sg10
S'janitoo_db.base'
p180
sg12
g13
(g14
g15
NtRp181
(dp182
g18
I1
sg19
I0
sg20
I47
sg21
I0
sg22
I0
sg23
I32
sg24
I0
sbssg25
S'\rZK\x00\xca\xfb7\xb6\x84`\x87\x9b5\x86\xac\xa3'
p183
ssS'janitoo_db_models_user'
p184
(dp185
g6
(dp186
g8
S'janitoo_db_models_user.html'
p187
sg10
S'janitoo_db.models.user'
p188
sg12
g13
(g14
g15
NtRp189
(dp190
g18
I1
sg19
I0
sg20
I188
sg21
I0
sg22
I0
sg23
I98
sg24
I0
sbssg25
S'\xfc{c\xe55\xfc\x01\x00@\x1b\x07\xd4*\xdb\xff\xa0'
p191
ssS'janitoo_classes'
p192
(dp193
g6
(dp194
g8
S'janitoo_classes.html'
p195
sg10
S'janitoo.classes'
p196
sg12
g13
(g14
g15
NtRp197
(dp198
g18
I1
sg19
I0
sg20
I9
sg21
I0
sg22
I0
sg23
I0
sg24
I0
sbssg25
S'+\xba\xf8)B\xbf\xd7\x8a\xef\x1aq\xa7\x0e/\\\xbb'
p199
ssS'janitoo_options'
p200
(dp201
g6
(dp202
g8
S'janitoo_options.html'
p203
sg10
S'janitoo.options'
p204
sg12
g13
(g14
g15
NtRp205
(dp206
g18
I1
sg19
I0
sg20
I154
sg21
I0
sg22
I0
sg23
I109
sg24
I0
sbssg25
S'\x9c\xe1hI!\xa0!\x8e\xa2\x94\xfez\xeb\xc2\x89\x96'
p207
sssS'version'
p208
S'3.7.1'
p209
sS'settings'
p210
S'\xf9\x19W\x8d\xcc\xedW\xd1[\xb1\xcaaB\x9c1S'
p211
sS'format'
p212
I1
s.